target datalayout = "e-m:e-p270:32:32-p271:32:32-p272:64:64-i64:64-i128:128-f80:128-n8:16:32:64-S128"
target triple = "x86_64-unknown-linux-gnu"

%struct.MachineClass = type { %struct.ObjectClass, ptr, ptr, ptr, ptr, ptr, ptr, ptr, ptr, ptr, i32, i32, i32, i32, i32, i8, i8, ptr, ptr, ptr, ptr, ptr, ptr, i64, ptr, i8, i8, i8, i32, i8, i8, i32, ptr, ptr, i8, i8, i8, i8, i8, i8, i8, i8, %struct.SMPCompatProps, ptr, ptr, ptr, ptr, ptr, ptr, ptr }
%struct.ObjectClass = type { ptr, ptr, [4 x ptr], [4 x ptr], ptr, ptr }
%struct.SMPCompatProps = type { i8, i8, i8, i8, i8, i8 }

@.str.1 = private unnamed_addr constant [8 x i8] c"machine\00", align 1
@.str.2 = private unnamed_addr constant [19 x i8] c"RISC-V Spike board\00", align 1
@.str.3 = private unnamed_addr constant [15 x i8] c"rv64-riscv-cpu\00", align 1
@.str.4 = private unnamed_addr constant [16 x i8] c"riscv.spike.ram\00", align 1
@.str.5 = private unnamed_addr constant [10 x i8] c"signature\00", align 1
@.str.6 = private unnamed_addr constant [33 x i8] c"File to write ACT test signature\00", align 1
@.str.7 = private unnamed_addr constant [22 x i8] c"signature-granularity\00", align 1
@line_size = external global i8, align 1
@.str.8 = private unnamed_addr constant [40 x i8] c"Size of each line in ACT signature file\00", align 1
@.str.9 = private unnamed_addr constant [98 x i8] c"/home/dtcxzyw/WorkSpace/Projects/compilers/llvm-opt-benchmark/bench/qemu/qemu/include/hw/boards.h\00", align 1
@__func__.MACHINE_CLASS = private unnamed_addr constant [14 x i8] c"MACHINE_CLASS\00", align 1

; Function Attrs: nounwind sspstrong uwtable
define internal ptr @MACHINE_CLASS(ptr noundef %klass) #0 {
entry:
  %klass.addr = alloca ptr, align 8
  store ptr %klass, ptr %klass.addr, align 8
  %0 = load ptr, ptr %klass.addr, align 8
  %call = call ptr @object_class_dynamic_cast_assert(ptr noundef %0, ptr noundef @.str.1, ptr noundef @.str.9, i32 noundef 23, ptr noundef @__func__.MACHINE_CLASS)
  ret ptr %call
}

; Function Attrs: nounwind sspstrong uwtable
define internal void @spike_machine_class_init(ptr noundef %oc, ptr noundef %data) #0 {
entry:
  %oc.addr = alloca ptr, align 8
  %data.addr = alloca ptr, align 8
  %mc = alloca ptr, align 8
  store ptr %oc, ptr %oc.addr, align 8
  store ptr %data, ptr %data.addr, align 8
  %0 = load ptr, ptr %oc.addr, align 8
  %call = call ptr @MACHINE_CLASS(ptr noundef %0)
  store ptr %call, ptr %mc, align 8
  %1 = load ptr, ptr %mc, align 8
  %desc = getelementptr inbounds %struct.MachineClass, ptr %1, i32 0, i32 4
  store ptr @.str.2, ptr %desc, align 8
  %2 = load ptr, ptr %mc, align 8
  %init = getelementptr inbounds %struct.MachineClass, ptr %2, i32 0, i32 6
  store ptr @spike_board_init, ptr %init, align 8
  %3 = load ptr, ptr %mc, align 8
  %max_cpus = getelementptr inbounds %struct.MachineClass, ptr %3, i32 0, i32 12
  store i32 8, ptr %max_cpus, align 8
  %4 = load ptr, ptr %mc, align 8
  %is_default = getelementptr inbounds %struct.MachineClass, ptr %4, i32 0, i32 16
  store i8 1, ptr %is_default, align 1
  %5 = load ptr, ptr %mc, align 8
  %default_cpu_type = getelementptr inbounds %struct.MachineClass, ptr %5, i32 0, i32 24
  store ptr @.str.3, ptr %default_cpu_type, align 8
  %6 = load ptr, ptr %mc, align 8
  %possible_cpu_arch_ids = getelementptr inbounds %struct.MachineClass, ptr %6, i32 0, i32 47
  store ptr @riscv_numa_possible_cpu_arch_ids, ptr %possible_cpu_arch_ids, align 8
  %7 = load ptr, ptr %mc, align 8
  %cpu_index_to_instance_props = getelementptr inbounds %struct.MachineClass, ptr %7, i32 0, i32 46
  store ptr @riscv_numa_cpu_index_to_props, ptr %cpu_index_to_instance_props, align 8
  %8 = load ptr, ptr %mc, align 8
  %get_default_cpu_node_id = getelementptr inbounds %struct.MachineClass, ptr %8, i32 0, i32 48
  store ptr @riscv_numa_get_default_cpu_node_id, ptr %get_default_cpu_node_id, align 8
  %9 = load ptr, ptr %mc, align 8
  %numa_mem_supported = getelementptr inbounds %struct.MachineClass, ptr %9, i32 0, i32 39
  store i8 1, ptr %numa_mem_supported, align 1
  %10 = load ptr, ptr %mc, align 8
  %cpu_cluster_has_numa_boundary = getelementptr inbounds %struct.MachineClass, ptr %10, i32 0, i32 41
  store i8 1, ptr %cpu_cluster_has_numa_boundary, align 1
  %11 = load ptr, ptr %mc, align 8
  %default_ram_id = getelementptr inbounds %struct.MachineClass, ptr %11, i32 0, i32 43
  store ptr @.str.4, ptr %default_ram_id, align 8
  %12 = load ptr, ptr %oc.addr, align 8
  %call1 = call ptr @object_class_property_add_str(ptr noundef %12, ptr noundef @.str.5, ptr noundef null, ptr noundef @spike_set_signature)
  %13 = load ptr, ptr %oc.addr, align 8
  call void @object_class_property_set_description(ptr noundef %13, ptr noundef @.str.5, ptr noundef @.str.6)
  %14 = load ptr, ptr %oc.addr, align 8
  %call2 = call ptr @object_class_property_add_uint8_ptr(ptr noundef %14, ptr noundef @.str.7, ptr noundef @line_size, i32 noundef 2)
  %15 = load ptr, ptr %oc.addr, align 8
  call void @object_class_property_set_description(ptr noundef %15, ptr noundef @.str.7, ptr noundef @.str.8)
  ret void
}