; Function Attrs: nounwind sspstrong uwtable
define internal void @spike_machine_class_init(ptr noundef %oc, ptr readnone captures(none) %data) #0 {
entry:
  %call.i = tail call ptr @object_class_dynamic_cast_assert(ptr noundef %oc, ptr noundef nonnull @.str.1, ptr noundef nonnull @.str.9, i32 noundef 23, ptr noundef nonnull @__func__.MACHINE_CLASS) #7
  %desc = getelementptr inbounds nuw i8, ptr %call.i, i64 120
  store ptr @.str.2, ptr %desc, align 8
  %init = getelementptr inbounds nuw i8, ptr %call.i, i64 136
  store ptr @spike_board_init, ptr %init, align 8
  %max_cpus = getelementptr inbounds nuw i8, ptr %call.i, i64 176
  store i32 8, ptr %max_cpus, align 8
  %is_default = getelementptr inbounds nuw i8, ptr %call.i, i64 189
  store i8 1, ptr %is_default, align 1
  %default_cpu_type = getelementptr inbounds nuw i8, ptr %call.i, i64 248
  store ptr @.str.3, ptr %default_cpu_type, align 8
  %possible_cpu_arch_ids = getelementptr inbounds nuw i8, ptr %call.i, i64 336
  store ptr @riscv_numa_possible_cpu_arch_ids, ptr %possible_cpu_arch_ids, align 8
  %cpu_index_to_instance_props = getelementptr inbounds nuw i8, ptr %call.i, i64 328
  store ptr @riscv_numa_cpu_index_to_props, ptr %cpu_index_to_instance_props, align 8
  %get_default_cpu_node_id = getelementptr inbounds nuw i8, ptr %call.i, i64 344
  store ptr @riscv_numa_get_default_cpu_node_id, ptr %get_default_cpu_node_id, align 8
  %numa_mem_supported = getelementptr inbounds nuw i8, ptr %call.i, i64 293
  store i8 1, ptr %numa_mem_supported, align 1
  %cpu_cluster_has_numa_boundary = getelementptr inbounds nuw i8, ptr %call.i, i64 295
  store i8 1, ptr %cpu_cluster_has_numa_boundary, align 1
  %default_ram_id = getelementptr inbounds nuw i8, ptr %call.i, i64 304
  store ptr @.str.4, ptr %default_ram_id, align 8
  %call1 = tail call ptr @object_class_property_add_str(ptr noundef %oc, ptr noundef nonnull @.str.5, ptr noundef null, ptr noundef nonnull @spike_set_signature) #7
  tail call void @object_class_property_set_description(ptr noundef %oc, ptr noundef nonnull @.str.5, ptr noundef nonnull @.str.6) #7
  %call2 = tail call ptr @object_class_property_add_uint8_ptr(ptr noundef %oc, ptr noundef nonnull @.str.7, ptr noundef nonnull @line_size, i32 noundef 2) #7
  tail call void @object_class_property_set_description(ptr noundef %oc, ptr noundef nonnull @.str.7, ptr noundef nonnull @.str.8) #7
  ret void
}